(lp0
(lp1
I1
aI5438
aa(lp2
I7
aI6097
aa(lp3
I13
aI577
aa(lp4
I19
aI2142
aa(lp5
I25
aI4202
aa(lp6
I31
aI3460
aa(lp7
I37
aI2554
aa(lp8
I43
aI1236
aa(lp9
I49
aI3378
aa(lp10
I55
aI5438
aa(lp11
I61
aI2472
aa(lp12
I67
aI165
aa(lp13
I73
aI823
aa(lp14
I79
aI1483
aa(lp15
I85
aI4862
aa(lp16
I91
aI5109
aa.